#include <math.h>
#include <stdio.h>
#include <stdlib.h>
#include <string.h>

int main()
{
	int n,m,i,a[100];
	scanf("%d%d",&n,&m);
	for(i=0;i<n;i++)
	{		
		scanf("%d",&a[i]);
	}
	for(i=0;i<2*n;i++)
	{
		if(i<n-m)
		{
			a[i+n]=a[i];
		}
	    else
	    {
		    a[m+i-n]=a[i];
	    }
	    if(i>=n+1)
	    {
		    a[i-m+1]=a[i];
	    }
	}
	for(i=0;i<n-1;i++)
	{
		printf("%d ",a[i]);
	}
	printf("%d",a[n-1]);
	return 0;
}