; ModuleID = 'source-C-CXX/51/3059.c'
source_filename = "source-C-CXX/51/3059.c"
target datalayout = "e-m:e-p270:32:32-p271:32:32-p272:64:64-i64:64-f80:128-n8:16:32:64-S128"
target triple = "x86_64-pc-linux-gnu"

@.str = private unnamed_addr constant [5 x i8] c"%d%d\00", align 1
@.str.1 = private unnamed_addr constant [3 x i8] c"%d\00", align 1
@.str.2 = private unnamed_addr constant [4 x i8] c"%d \00", align 1

; Function Attrs: nofree nounwind sspstrong uwtable
define dso_local i32 @main() local_unnamed_addr #0 {
  %1 = alloca i32, align 4
  %2 = alloca i32, align 4
  %3 = alloca [100 x i32], align 16
  %4 = bitcast i32* %1 to i8*
  call void @llvm.lifetime.start.p0i8(i64 4, i8* nonnull %4) #4
  %5 = bitcast i32* %2 to i8*
  call void @llvm.lifetime.start.p0i8(i64 4, i8* nonnull %5) #4
  %6 = bitcast [100 x i32]* %3 to i8*
  call void @llvm.lifetime.start.p0i8(i64 400, i8* nonnull %6) #4
  %7 = call i32 (i8*, ...) @__isoc99_scanf(i8* getelementptr inbounds ([5 x i8], [5 x i8]* @.str, i64 0, i64 0), i32* nonnull %1, i32* nonnull %2)
  %8 = load i32, i32* %1, align 4, !tbaa !5
  %9 = icmp sgt i32 %8, 0
  br i1 %9, label %20, label %30

10:                                               ; preds = %20
  %11 = load i32, i32* %2, align 4
  %12 = icmp sgt i32 %25, 0
  br i1 %12, label %13, label %30

13:                                               ; preds = %10
  %14 = sub nsw i32 %25, %11
  %15 = zext i32 %25 to i64
  %16 = sext i32 %14 to i64
  %17 = shl nuw i32 %25, 1
  %18 = call i32 @llvm.smax.i32(i32 %17, i32 1)
  %19 = zext i32 %18 to i64
  br label %34

20:                                               ; preds = %0, %20
  %21 = phi i64 [ %24, %20 ], [ 0, %0 ]
  %22 = getelementptr inbounds [100 x i32], [100 x i32]* %3, i64 0, i64 %21
  %23 = call i32 (i8*, ...) @__isoc99_scanf(i8* getelementptr inbounds ([3 x i8], [3 x i8]* @.str.1, i64 0, i64 0), i32* nonnull %22)
  %24 = add nuw nsw i64 %21, 1
  %25 = load i32, i32* %1, align 4, !tbaa !5
  %26 = sext i32 %25 to i64
  %27 = icmp slt i64 %24, %26
  br i1 %27, label %20, label %10, !llvm.loop !9

28:                                               ; preds = %57
  %29 = icmp sgt i32 %25, 1
  br i1 %29, label %60, label %30

30:                                               ; preds = %0, %10, %28
  %31 = phi i32 [ %25, %28 ], [ %25, %10 ], [ %8, %0 ]
  %32 = add nsw i32 %31, -1
  %33 = sext i32 %32 to i64
  br label %70

34:                                               ; preds = %13, %57
  %35 = phi i64 [ 0, %13 ], [ %58, %57 ]
  %36 = icmp slt i64 %35, %16
  %37 = getelementptr inbounds [100 x i32], [100 x i32]* %3, i64 0, i64 %35
  %38 = load i32, i32* %37, align 4, !tbaa !5
  %39 = trunc i64 %35 to i32
  %40 = sub i32 %39, %25
  %41 = add i32 %40, %11
  %42 = sext i32 %41 to i64
  %43 = add nsw i64 %35, %15
  %44 = select i1 %36, i64 %43, i64 %42
  %45 = getelementptr inbounds [100 x i32], [100 x i32]* %3, i64 0, i64 %44
  store i32 %38, i32* %45, align 4, !tbaa !5
  %46 = icmp sgt i64 %35, %15
  br i1 %46, label %49, label %47

47:                                               ; preds = %34
  %48 = add nuw nsw i64 %35, 1
  br label %57

49:                                               ; preds = %34
  %50 = getelementptr inbounds [100 x i32], [100 x i32]* %3, i64 0, i64 %35
  %51 = load i32, i32* %50, align 4, !tbaa !5
  %52 = add nuw nsw i64 %35, 1
  %53 = trunc i64 %52 to i32
  %54 = sub i32 %53, %11
  %55 = sext i32 %54 to i64
  %56 = getelementptr inbounds [100 x i32], [100 x i32]* %3, i64 0, i64 %55
  store i32 %51, i32* %56, align 4, !tbaa !5
  br label %57

57:                                               ; preds = %47, %49
  %58 = phi i64 [ %48, %47 ], [ %52, %49 ]
  %59 = icmp eq i64 %58, %19
  br i1 %59, label %28, label %34, !llvm.loop !11

60:                                               ; preds = %28, %60
  %61 = phi i64 [ %65, %60 ], [ 0, %28 ]
  %62 = getelementptr inbounds [100 x i32], [100 x i32]* %3, i64 0, i64 %61
  %63 = load i32, i32* %62, align 4, !tbaa !5
  %64 = call i32 (i8*, ...) @printf(i8* nonnull dereferenceable(1) getelementptr inbounds ([4 x i8], [4 x i8]* @.str.2, i64 0, i64 0), i32 %63)
  %65 = add nuw nsw i64 %61, 1
  %66 = load i32, i32* %1, align 4, !tbaa !5
  %67 = add nsw i32 %66, -1
  %68 = sext i32 %67 to i64
  %69 = icmp slt i64 %65, %68
  br i1 %69, label %60, label %70, !llvm.loop !12

70:                                               ; preds = %60, %30
  %71 = phi i64 [ %33, %30 ], [ %68, %60 ]
  %72 = getelementptr inbounds [100 x i32], [100 x i32]* %3, i64 0, i64 %71
  %73 = load i32, i32* %72, align 4, !tbaa !5
  %74 = call i32 (i8*, ...) @printf(i8* nonnull dereferenceable(1) getelementptr inbounds ([3 x i8], [3 x i8]* @.str.1, i64 0, i64 0), i32 %73)
  call void @llvm.lifetime.end.p0i8(i64 400, i8* nonnull %6) #4
  call void @llvm.lifetime.end.p0i8(i64 4, i8* nonnull %5) #4
  call void @llvm.lifetime.end.p0i8(i64 4, i8* nonnull %4) #4
  ret i32 0
}

; Function Attrs: argmemonly mustprogress nofree nosync nounwind willreturn
declare void @llvm.lifetime.start.p0i8(i64 immarg, i8* nocapture) #1

; Function Attrs: nofree nounwind
declare noundef i32 @__isoc99_scanf(i8* nocapture noundef readonly, ...) local_unnamed_addr #2

; Function Attrs: nofree nounwind
declare noundef i32 @printf(i8* nocapture noundef readonly, ...) local_unnamed_addr #2

; Function Attrs: argmemonly mustprogress nofree nosync nounwind willreturn
declare void @llvm.lifetime.end.p0i8(i64 immarg, i8* nocapture) #1

; Function Attrs: nofree nosync nounwind readnone speculatable willreturn
declare i32 @llvm.smax.i32(i32, i32) #3


!llvm.module.flags = !{!0, !1, !2, !3}
!llvm.ident = !{!4}

!0 = !{i32 1, !"wchar_size", i32 4}
!1 = !{i32 7, !"PIC Level", i32 2}
!2 = !{i32 7, !"PIE Level", i32 2}
!3 = !{i32 7, !"uwtable", i32 1}
!4 = !{!"clang version 13.0.0"}
!5 = !{!6, !6, i64 0}
!6 = !{!"int", !7, i64 0}
!7 = !{!"omnipotent char", !8, i64 0}
!8 = !{!"Simple C/C++ TBAA"}
!9 = distinct !{!9, !10}
!10 = !{!"llvm.loop.mustprogress"}
!11 = distinct !{!11, !10}
!12 = distinct !{!12, !10}
